; Function Attrs: nounwind uwtable
define internal fastcc void @Io_ReadBlifFree(ptr noundef nonnull captures(none) %0) unnamed_addr #0 {
  %2 = getelementptr inbounds nuw i8, ptr %0, i64 8
  %3 = load ptr, ptr %2, align 8, !tbaa !17
  tail call void @Extra_FileReaderFree(ptr noundef %3) #14
  %4 = getelementptr inbounds nuw i8, ptr %0, i64 48
  %5 = load ptr, ptr %4, align 8, !tbaa !24
  %6 = getelementptr inbounds nuw i8, ptr %5, i64 8
  %7 = load ptr, ptr %6, align 8, !tbaa !23
  %.not.i = icmp eq ptr %7, null
  br i1 %.not.i, label %Vec_PtrFree.exit, label %8

8:                                                ; preds = %1
  tail call void @free(ptr noundef nonnull %7) #14
  br label %Vec_PtrFree.exit

Vec_PtrFree.exit:                                 ; preds = %1, %8
  tail call void @free(ptr noundef nonnull %5) #14
  %9 = getelementptr inbounds nuw i8, ptr %0, i64 56
  %10 = load ptr, ptr %9, align 8, !tbaa !29
  %11 = getelementptr inbounds nuw i8, ptr %10, i64 8
  %12 = load ptr, ptr %11, align 8, !tbaa !28
  %.not.i9 = icmp eq ptr %12, null
  br i1 %.not.i9, label %Vec_StrFree.exit, label %13

13:                                               ; preds = %Vec_PtrFree.exit
  tail call void @free(ptr noundef nonnull %12) #14
  br label %Vec_StrFree.exit

Vec_StrFree.exit:                                 ; preds = %Vec_PtrFree.exit, %13
  tail call void @free(ptr noundef nonnull %10) #14
  %14 = getelementptr inbounds nuw i8, ptr %0, i64 64
  %15 = load ptr, ptr %14, align 8, !tbaa !35
  %16 = getelementptr inbounds nuw i8, ptr %15, i64 8
  %17 = load ptr, ptr %16, align 8, !tbaa !34
  %.not.i10 = icmp eq ptr %17, null
  br i1 %.not.i10, label %Vec_IntFree.exit, label %18

18:                                               ; preds = %Vec_StrFree.exit
  tail call void @free(ptr noundef nonnull %17) #14
  br label %Vec_IntFree.exit

Vec_IntFree.exit:                                 ; preds = %Vec_StrFree.exit, %18
  tail call void @free(ptr noundef nonnull %15) #14
  %19 = getelementptr inbounds nuw i8, ptr %0, i64 72
  %20 = load ptr, ptr %19, align 8, !tbaa !36
  %21 = getelementptr inbounds nuw i8, ptr %20, i64 8
  %22 = load ptr, ptr %21, align 8, !tbaa !34
  %.not.i11 = icmp eq ptr %22, null
  br i1 %.not.i11, label %Vec_IntFree.exit12, label %23

23:                                               ; preds = %Vec_IntFree.exit
  tail call void @free(ptr noundef nonnull %22) #14
  br label %Vec_IntFree.exit12

Vec_IntFree.exit12:                               ; preds = %Vec_IntFree.exit, %23
  tail call void @free(ptr noundef nonnull %20) #14
  %24 = getelementptr inbounds nuw i8, ptr %0, i64 80
  %25 = load ptr, ptr %24, align 8, !tbaa !37
  %26 = getelementptr inbounds nuw i8, ptr %25, i64 8
  %27 = load ptr, ptr %26, align 8, !tbaa !34
  %.not.i13 = icmp eq ptr %27, null
  br i1 %.not.i13, label %Vec_IntFree.exit14, label %28

28:                                               ; preds = %Vec_IntFree.exit12
  tail call void @free(ptr noundef nonnull %27) #14
  br label %Vec_IntFree.exit14

Vec_IntFree.exit14:                               ; preds = %Vec_IntFree.exit12, %28
  tail call void @free(ptr noundef nonnull %25) #14
  %29 = getelementptr inbounds nuw i8, ptr %0, i64 88
  %30 = load ptr, ptr %29, align 8, !tbaa !38
  %31 = getelementptr inbounds nuw i8, ptr %30, i64 8
  %32 = load ptr, ptr %31, align 8, !tbaa !34
  %.not.i15 = icmp eq ptr %32, null
  br i1 %.not.i15, label %Vec_IntFree.exit16, label %33

33:                                               ; preds = %Vec_IntFree.exit14
  tail call void @free(ptr noundef nonnull %32) #14
  br label %Vec_IntFree.exit16

Vec_IntFree.exit16:                               ; preds = %Vec_IntFree.exit14, %33
  tail call void @free(ptr noundef nonnull %30) #14
  tail call void @free(ptr noundef nonnull %0) #14
  ret void
}